target datalayout = "e-m:e-p270:32:32-p271:32:32-p272:64:64-i64:64-i128:128-f80:128-n8:16:32:64-S128"
target triple = "x86_64-unknown-linux-gnu"

%"class.google::protobuf::io::Tokenizer" = type { %"struct.google::protobuf::io::Tokenizer::Token", %"struct.google::protobuf::io::Tokenizer::Token", ptr, ptr, i8, ptr, i32, i32, i8, i32, i32, ptr, i32, i8, i32, i8, i8, i8, i8 }
%"struct.google::protobuf::io::Tokenizer::Token" = type <{ i32, [4 x i8], %"class.std::__cxx11::basic_string", i32, i32, i32, [4 x i8] }>
%"class.std::__cxx11::basic_string" = type { %"struct.std::__cxx11::basic_string<char>::_Alloc_hider", i64, %union.anon }
%"struct.std::__cxx11::basic_string<char>::_Alloc_hider" = type { ptr }
%union.anon = type { i64, [8 x i8] }

; Function Attrs: mustprogress nounwind uwtable
define void @_ZN6google8protobuf2io9Tokenizer21set_report_whitespaceEb(ptr noundef nonnull align 8 dereferenceable(192) %this, i1 noundef zeroext %report) #4 align 2 {
entry:
  %this.addr = alloca ptr, align 8
  %report.addr = alloca i8, align 1
  store ptr %this, ptr %this.addr, align 8
  %frombool = zext i1 %report to i8
  store i8 %frombool, ptr %report.addr, align 1
  %this1 = load ptr, ptr %this.addr, align 8
  %0 = load i8, ptr %report.addr, align 1
  %tobool = trunc i8 %0 to i1
  %report_whitespace_ = getelementptr inbounds %"class.google::protobuf::io::Tokenizer", ptr %this1, i32 0, i32 17
  %frombool2 = zext i1 %tobool to i8
  store i8 %frombool2, ptr %report_whitespace_, align 2
  %1 = load i8, ptr %report.addr, align 1
  %tobool3 = trunc i8 %1 to i1
  %conv = zext i1 %tobool3 to i32
  %report_newlines_ = getelementptr inbounds %"class.google::protobuf::io::Tokenizer", ptr %this1, i32 0, i32 18
  %2 = load i8, ptr %report_newlines_, align 1
  %tobool4 = trunc i8 %2 to i1
  %conv5 = zext i1 %tobool4 to i32
  %and = and i32 %conv5, %conv
  %tobool6 = icmp ne i32 %and, 0
  %frombool7 = zext i1 %tobool6 to i8
  store i8 %frombool7, ptr %report_newlines_, align 1
  ret void
}