; Function Attrs: mustprogress nofree norecurse nosync nounwind willreturn memory(argmem: readwrite) uwtable
define void @_ZN6google8protobuf2io9Tokenizer21set_report_whitespaceEb(ptr noundef nonnull align 8 captures(none) dereferenceable(192) initializes((190, 191)) %this, i1 noundef zeroext %report) local_unnamed_addr #11 align 2 {
entry:
  %frombool = zext i1 %report to i8
  %report_whitespace_ = getelementptr inbounds nuw i8, ptr %this, i64 190
  store i8 %frombool, ptr %report_whitespace_, align 2
  %report_newlines_ = getelementptr inbounds nuw i8, ptr %this, i64 191
  %0 = load i8, ptr %report_newlines_, align 1
  %1 = and i8 %0, 1
  %tobool62 = icmp ne i8 %1, 0
  %tobool6 = select i1 %report, i1 %tobool62, i1 false
  %frombool7 = zext i1 %tobool6 to i8
  store i8 %frombool7, ptr %report_newlines_, align 1
  ret void
}